
led.elf:     file format elf32-littlearm


Disassembly of section .text:

50000000 <_start>:
50000000:	e3a00207 	mov	r0, #1879048192	; 0x70000000
50000004:	e3800013 	orr	r0, r0, #19
50000008:	ee0f0f92 	mcr	15, 0, r0, cr15, cr2, {4}
5000000c:	e59f000c 	ldr	r0, [pc, #12]	; 50000020 <halt+0x4>
50000010:	e3a01000 	mov	r1, #0
50000014:	e5801000 	str	r1, [r0]
50000018:	eb000010 	bl	50000060 <led_function>

5000001c <halt>:
5000001c:	eafffffe 	b	5000001c <halt>
50000020:	7e004000 	cdpvc	0, 0, cr4, cr0, cr0, {0}

50000024 <delay>:
50000024:	e52db004 	push	{fp}		; (str fp, [sp, #-4]!)
50000028:	e28db000 	add	fp, sp, #0
5000002c:	e24dd00c 	sub	sp, sp, #12
50000030:	e3a03601 	mov	r3, #1048576	; 0x100000
50000034:	e50b3008 	str	r3, [fp, #-8]
50000038:	e1a00000 	nop			; (mov r0, r0)
5000003c:	e51b3008 	ldr	r3, [fp, #-8]
50000040:	e2432001 	sub	r2, r3, #1
50000044:	e50b2008 	str	r2, [fp, #-8]
50000048:	e3530000 	cmp	r3, #0
5000004c:	1afffffa 	bne	5000003c <delay+0x18>
50000050:	e1a00000 	nop			; (mov r0, r0)
50000054:	e28bd000 	add	sp, fp, #0
50000058:	e49db004 	pop	{fp}		; (ldr fp, [sp], #4)
5000005c:	e12fff1e 	bx	lr

50000060 <led_function>:
50000060:	e92d4800 	push	{fp, lr}
50000064:	e28db004 	add	fp, sp, #4
50000068:	e24dd010 	sub	sp, sp, #16
5000006c:	e3a03000 	mov	r3, #0
50000070:	e50b3008 	str	r3, [fp, #-8]
50000074:	e59f3074 	ldr	r3, [pc, #116]	; 500000f0 <led_function+0x90>
50000078:	e50b300c 	str	r3, [fp, #-12]
5000007c:	e59f3070 	ldr	r3, [pc, #112]	; 500000f4 <led_function+0x94>
50000080:	e50b3010 	str	r3, [fp, #-16]
50000084:	e51b300c 	ldr	r3, [fp, #-12]
50000088:	e59f2068 	ldr	r2, [pc, #104]	; 500000f8 <led_function+0x98>
5000008c:	e5832000 	str	r2, [r3]
50000090:	e51b3010 	ldr	r3, [fp, #-16]
50000094:	e3a020f0 	mov	r2, #240	; 0xf0
50000098:	e5832000 	str	r2, [r3]
5000009c:	ebffffe0 	bl	50000024 <delay>
500000a0:	e51b3008 	ldr	r3, [fp, #-8]
500000a4:	e1a03203 	lsl	r3, r3, #4
500000a8:	e1e03003 	mvn	r3, r3
500000ac:	e1a02003 	mov	r2, r3
500000b0:	e51b3010 	ldr	r3, [fp, #-16]
500000b4:	e5832000 	str	r2, [r3]
500000b8:	e51b3008 	ldr	r3, [fp, #-8]
500000bc:	e2833001 	add	r3, r3, #1
500000c0:	e50b3008 	str	r3, [fp, #-8]
500000c4:	e51b3008 	ldr	r3, [fp, #-8]
500000c8:	e3530010 	cmp	r3, #16
500000cc:	1a000001 	bne	500000d8 <led_function+0x78>
500000d0:	e3a03000 	mov	r3, #0
500000d4:	e50b3008 	str	r3, [fp, #-8]
500000d8:	ebffffd1 	bl	50000024 <delay>
500000dc:	e51b3010 	ldr	r3, [fp, #-16]
500000e0:	e3a020f0 	mov	r2, #240	; 0xf0
500000e4:	e5832000 	str	r2, [r3]
500000e8:	ebffffcd 	bl	50000024 <delay>
500000ec:	eaffffeb 	b	500000a0 <led_function+0x40>
500000f0:	7f008800 	svcvc	0x00008800
500000f4:	7f008808 	svcvc	0x00008808
500000f8:	11110000 	tstne	r1, r0

Disassembly of section .comment:

00000000 <.comment>:
   0:	3a434347 	bcc	10d0d24 <_stack+0x1050d24>
   4:	35312820 	ldrcc	r2, [r1, #-2080]!	; 0xfffff7e0
   8:	322d373a 	eorcc	r3, sp, #15204352	; 0xe80000
   c:	2d383130 	ldfcss	f3, [r8, #-192]!	; 0xffffff40
  10:	362d3271 			; <UNDEFINED> instruction: 0x362d3271
  14:	2e372029 	cdpcs	0, 3, cr2, cr7, cr9, {1}
  18:	20312e33 	eorscs	r2, r1, r3, lsr lr
  1c:	38313032 	ldmdacc	r1!, {r1, r4, r5, ip, sp}
  20:	32323630 	eorscc	r3, r2, #48, 12	; 0x3000000
  24:	65722820 	ldrbvs	r2, [r2, #-2080]!	; 0xfffff7e0
  28:	7361656c 	cmnvc	r1, #108, 10	; 0x1b000000
  2c:	5b202965 	blpl	80a5c8 <_stack+0x78a5c8>
  30:	2f4d5241 	svccs	0x004d5241
  34:	65626d65 	strbvs	r6, [r2, #-3429]!	; 0xfffff29b
  38:	64656464 	strbtvs	r6, [r5], #-1124	; 0xfffffb9c
  3c:	622d372d 	eorvs	r3, sp, #11796480	; 0xb40000
  40:	636e6172 	cmnvs	lr, #-2147483620	; 0x8000001c
  44:	65722068 	ldrbvs	r2, [r2, #-104]!	; 0xffffff98
  48:	69736976 	ldmdbvs	r3!, {r1, r2, r4, r5, r6, r8, fp, sp, lr}^
  4c:	32206e6f 	eorcc	r6, r0, #1776	; 0x6f0
  50:	30393136 	eorscc	r3, r9, r6, lsr r1
  54:	Address 0x0000000000000054 is out of bounds.


Disassembly of section .ARM.attributes:

00000000 <.ARM.attributes>:
   0:	00002b41 	andeq	r2, r0, r1, asr #22
   4:	61656100 	cmnvs	r5, r0, lsl #2
   8:	01006962 	tsteq	r0, r2, ror #18
   c:	00000021 	andeq	r0, r0, r1, lsr #32
  10:	4d524105 	ldfmie	f4, [r2, #-20]	; 0xffffffec
  14:	4d445437 	cfstrdmi	mvd5, [r4, #-220]	; 0xffffff24
  18:	02060049 	andeq	r0, r6, #73	; 0x49
  1c:	01090108 	tsteq	r9, r8, lsl #2
  20:	01140412 	tsteq	r4, r2, lsl r4
  24:	03170115 	tsteq	r7, #1073741829	; 0x40000005
  28:	011a0118 	tsteq	sl, r8, lsl r1
